target datalayout = "e-m:e-p270:32:32-p271:32:32-p272:64:64-i64:64-i128:128-f80:128-n8:16:32:64-S128"
target triple = "x86_64-pc-linux-gnu"

%struct.tvb_composite = type { %struct.tvbuff, %struct.tvb_comp_t }
%struct.tvbuff = type { ptr, ptr, i8, i32, ptr, ptr, i32, i32, i32, i32 }
%struct.tvb_comp_t = type { ptr, ptr, ptr, i32 }
%struct._GQueue = type { ptr, ptr, i32 }
%struct._GList = type { ptr, ptr, ptr }

@.str = private unnamed_addr constant [29 x i8] c"%s:%u: failed assertion \22%s\22\00", align 1
@.str.1 = private unnamed_addr constant [24 x i8] c"epan/tvbuff_composite.c\00", align 1
@.str.8 = private unnamed_addr constant [45 x i8] c"abs_offset == tvb->length && abs_length == 0\00", align 1
@.str.9 = private unnamed_addr constant [1 x i8] zeroinitializer, align 1
@.str.10 = private unnamed_addr constant [16 x i8] c"!tvb->real_data\00", align 1

; Function Attrs: null_pointer_is_valid sspstrong uwtable
define internal ptr @composite_get_ptr(ptr noundef %0, i32 noundef %1, i32 noundef %2) #0 {
  %4 = alloca ptr, align 8
  %5 = alloca ptr, align 8
  %6 = alloca i32, align 4
  %7 = alloca i32, align 4
  %8 = alloca ptr, align 8
  %9 = alloca i32, align 4
  %10 = alloca ptr, align 8
  %11 = alloca ptr, align 8
  %12 = alloca i32, align 4
  %13 = alloca ptr, align 8
  %14 = alloca i32, align 4
  %15 = alloca ptr, align 8
  store ptr %0, ptr %5, align 8
  store i32 %1, ptr %6, align 4
  store i32 %2, ptr %7, align 4
  call void @llvm.lifetime.start.p0(i64 8, ptr %8) #8
  %16 = load ptr, ptr %5, align 8
  store ptr %16, ptr %8, align 8
  call void @llvm.lifetime.start.p0(i64 4, ptr %9) #8
  call void @llvm.lifetime.start.p0(i64 8, ptr %10) #8
  call void @llvm.lifetime.start.p0(i64 8, ptr %11) #8
  store ptr null, ptr %11, align 8
  call void @llvm.lifetime.start.p0(i64 4, ptr %12) #8
  %17 = load ptr, ptr %8, align 8
  %18 = getelementptr inbounds nuw %struct.tvb_composite, ptr %17, i32 0, i32 1
  store ptr %18, ptr %10, align 8
  call void @llvm.lifetime.start.p0(i64 8, ptr %13) #8
  %19 = load ptr, ptr %10, align 8
  %20 = getelementptr inbounds nuw %struct.tvb_comp_t, ptr %19, i32 0, i32 0
  %21 = load ptr, ptr %20, align 8
  %22 = getelementptr inbounds nuw %struct._GQueue, ptr %21, i32 0, i32 0
  %23 = load ptr, ptr %22, align 8
  store ptr %23, ptr %13, align 8
  store i32 0, ptr %9, align 4
  br label %24

24:                                               ; preds = %46, %3
  %25 = load i32, ptr %9, align 4
  %26 = load ptr, ptr %10, align 8
  %27 = getelementptr inbounds nuw %struct.tvb_comp_t, ptr %26, i32 0, i32 0
  %28 = load ptr, ptr %27, align 8
  %29 = call i32 @g_queue_get_length(ptr noundef %28)
  %30 = icmp ult i32 %25, %29
  br i1 %30, label %31, label %52

31:                                               ; preds = %24
  %32 = load i32, ptr %6, align 4
  %33 = load ptr, ptr %10, align 8
  %34 = getelementptr inbounds nuw %struct.tvb_comp_t, ptr %33, i32 0, i32 2
  %35 = load ptr, ptr %34, align 8
  %36 = load i32, ptr %9, align 4
  %37 = zext i32 %36 to i64
  %38 = getelementptr i32, ptr %35, i64 %37
  %39 = load i32, ptr %38, align 4
  %40 = icmp ule i32 %32, %39
  br i1 %40, label %41, label %45

41:                                               ; preds = %31
  %42 = load ptr, ptr %13, align 8
  %43 = getelementptr inbounds nuw %struct._GList, ptr %42, i32 0, i32 0
  %44 = load ptr, ptr %43, align 8
  store ptr %44, ptr %11, align 8
  br label %52

45:                                               ; preds = %31
  br label %46

46:                                               ; preds = %45
  %47 = load i32, ptr %9, align 4
  %48 = add i32 %47, 1
  store i32 %48, ptr %9, align 4
  %49 = load ptr, ptr %13, align 8
  %50 = getelementptr inbounds nuw %struct._GList, ptr %49, i32 0, i32 1
  %51 = load ptr, ptr %50, align 8
  store ptr %51, ptr %13, align 8
  br label %24, !llvm.loop !10

52:                                               ; preds = %41, %24
  %53 = load ptr, ptr %11, align 8
  %54 = icmp ne ptr %53, null
  br i1 %54, label %68, label %55

55:                                               ; preds = %52
  %56 = load i32, ptr %6, align 4
  %57 = load ptr, ptr %5, align 8
  %58 = getelementptr inbounds nuw %struct.tvbuff, ptr %57, i32 0, i32 6
  %59 = load i32, ptr %58, align 8
  %60 = icmp eq i32 %56, %59
  br i1 %60, label %61, label %65

61:                                               ; preds = %55
  %62 = load i32, ptr %7, align 4
  %63 = icmp eq i32 %62, 0
  br i1 %63, label %64, label %65

64:                                               ; preds = %61
  br label %67

65:                                               ; preds = %61, %55
  call void (ptr, ...) @proto_report_dissector_bug(ptr noundef @.str, ptr noundef @.str.1, i32 noundef 82, ptr noundef @.str.8) #9
  unreachable

66:                                               ; No predecessors!
  br label %67

67:                                               ; preds = %66, %64
  store ptr @.str.9, ptr %4, align 8
  store i32 1, ptr %14, align 4
  br label %117

68:                                               ; preds = %52
  %69 = load i32, ptr %6, align 4
  %70 = load ptr, ptr %10, align 8
  %71 = getelementptr inbounds nuw %struct.tvb_comp_t, ptr %70, i32 0, i32 1
  %72 = load ptr, ptr %71, align 8
  %73 = load i32, ptr %9, align 4
  %74 = zext i32 %73 to i64
  %75 = getelementptr i32, ptr %72, i64 %74
  %76 = load i32, ptr %75, align 4
  %77 = sub i32 %69, %76
  store i32 %77, ptr %12, align 4
  %78 = load ptr, ptr %11, align 8
  %79 = load i32, ptr %12, align 4
  %80 = load i32, ptr %7, align 4
  %81 = call zeroext i1 @tvb_bytes_exist(ptr noundef %78, i32 noundef %79, i32 noundef %80)
  br i1 %81, label %82, label %95

82:                                               ; preds = %68
  %83 = load ptr, ptr %5, align 8
  %84 = getelementptr inbounds nuw %struct.tvbuff, ptr %83, i32 0, i32 5
  %85 = load ptr, ptr %84, align 8
  %86 = icmp ne ptr %85, null
  br i1 %86, label %88, label %87

87:                                               ; preds = %82
  br label %90

88:                                               ; preds = %82
  call void (ptr, ...) @proto_report_dissector_bug(ptr noundef @.str, ptr noundef @.str.1, i32 noundef 92, ptr noundef @.str.10) #9
  unreachable

89:                                               ; No predecessors!
  br label %90

90:                                               ; preds = %89, %87
  %91 = load ptr, ptr %11, align 8
  %92 = load i32, ptr %12, align 4
  %93 = load i32, ptr %7, align 4
  %94 = call ptr @tvb_get_ptr(ptr noundef %91, i32 noundef %92, i32 noundef %93)
  store ptr %94, ptr %4, align 8
  store i32 1, ptr %14, align 4
  br label %117

95:                                               ; preds = %68
  call void @llvm.lifetime.start.p0(i64 8, ptr %15) #8
  %96 = load ptr, ptr %5, align 8
  %97 = getelementptr inbounds nuw %struct.tvbuff, ptr %96, i32 0, i32 6
  %98 = load i32, ptr %97, align 8
  %99 = zext i32 %98 to i64
  %100 = call noalias ptr @g_malloc(i64 noundef %99) #10
  store ptr %100, ptr %15, align 8
  %101 = load ptr, ptr %5, align 8
  %102 = load ptr, ptr %15, align 8
  %103 = load ptr, ptr %5, align 8
  %104 = getelementptr inbounds nuw %struct.tvbuff, ptr %103, i32 0, i32 6
  %105 = load i32, ptr %104, align 8
  %106 = zext i32 %105 to i64
  %107 = call ptr @tvb_memcpy(ptr noundef %101, ptr noundef %102, i32 noundef 0, i64 noundef %106)
  %108 = load ptr, ptr %15, align 8
  %109 = load ptr, ptr %5, align 8
  %110 = getelementptr inbounds nuw %struct.tvbuff, ptr %109, i32 0, i32 5
  store ptr %108, ptr %110, align 8
  %111 = load ptr, ptr %5, align 8
  %112 = getelementptr inbounds nuw %struct.tvbuff, ptr %111, i32 0, i32 5
  %113 = load ptr, ptr %112, align 8
  %114 = load i32, ptr %6, align 4
  %115 = zext i32 %114 to i64
  %116 = getelementptr i8, ptr %113, i64 %115
  store ptr %116, ptr %4, align 8
  store i32 1, ptr %14, align 4
  call void @llvm.lifetime.end.p0(i64 8, ptr %15) #8
  br label %117

117:                                              ; preds = %95, %90, %67
  call void @llvm.lifetime.end.p0(i64 8, ptr %13) #8
  call void @llvm.lifetime.end.p0(i64 4, ptr %12) #8
  call void @llvm.lifetime.end.p0(i64 8, ptr %11) #8
  call void @llvm.lifetime.end.p0(i64 8, ptr %10) #8
  call void @llvm.lifetime.end.p0(i64 4, ptr %9) #8
  call void @llvm.lifetime.end.p0(i64 8, ptr %8) #8
  %118 = load ptr, ptr %4, align 8
  ret ptr %118
}