; Function Attrs: null_pointer_is_valid sspstrong uwtable
define internal ptr @composite_get_ptr(ptr noundef %0, i32 noundef %1, i32 noundef %2) #0 {
  %4 = getelementptr inbounds nuw i8, ptr %0, i64 56
  %5 = load ptr, ptr %4, align 8
  %.03443 = load ptr, ptr %5, align 8
  %6 = tail call i32 @g_queue_get_length(ptr noundef %5)
  %.not46 = icmp eq i32 %6, 0
  br i1 %.not46, label %.thread, label %.lr.ph

.lr.ph:                                           ; preds = %3
  %7 = getelementptr inbounds nuw i8, ptr %0, i64 72
  br label %8

8:                                                ; preds = %.lr.ph, %12
  %indvars.iv = phi i64 [ 0, %.lr.ph ], [ %indvars.iv.next, %12 ]
  %.03445 = phi ptr [ %.03443, %.lr.ph ], [ %.034, %12 ]
  %9 = load ptr, ptr %7, align 8
  %10 = getelementptr i32, ptr %9, i64 %indvars.iv
  %11 = load i32, ptr %10, align 4
  %.not = icmp ugt i32 %1, %11
  br i1 %.not, label %12, label %18

12:                                               ; preds = %8
  %indvars.iv.next = add nuw nsw i64 %indvars.iv, 1
  %13 = getelementptr inbounds nuw i8, ptr %.03445, i64 8
  %.034 = load ptr, ptr %13, align 8
  %14 = load ptr, ptr %4, align 8
  %15 = tail call i32 @g_queue_get_length(ptr noundef %14)
  %16 = zext i32 %15 to i64
  %17 = icmp samesign ult i64 %indvars.iv.next, %16
  br i1 %17, label %8, label %.thread, !llvm.loop !10

18:                                               ; preds = %8
  %19 = load ptr, ptr %.03445, align 8
  %.not37 = icmp eq ptr %19, null
  br i1 %.not37, label %.thread, label %25

.thread:                                          ; preds = %12, %3, %18
  %20 = getelementptr inbounds nuw i8, ptr %0, i64 40
  %21 = load i32, ptr %20, align 8
  %22 = icmp eq i32 %1, %21
  %23 = icmp eq i32 %2, 0
  %or.cond = and i1 %23, %22
  br i1 %or.cond, label %49, label %24

24:                                               ; preds = %.thread
  tail call void (ptr, ...) @proto_report_dissector_bug(ptr noundef nonnull @.str, ptr noundef nonnull @.str.1, i32 noundef 82, ptr noundef nonnull @.str.8) #7
  unreachable

25:                                               ; preds = %18
  %26 = getelementptr inbounds nuw i8, ptr %0, i64 64
  %27 = load ptr, ptr %26, align 8
  %28 = getelementptr i32, ptr %27, i64 %indvars.iv
  %29 = load i32, ptr %28, align 4
  %30 = sub i32 %1, %29
  %31 = tail call zeroext i1 @tvb_bytes_exist(ptr noundef nonnull %19, i32 noundef %30, i32 noundef %2)
  br i1 %31, label %32, label %38

32:                                               ; preds = %25
  %33 = getelementptr inbounds nuw i8, ptr %0, i64 32
  %34 = load ptr, ptr %33, align 8
  %.not38 = icmp eq ptr %34, null
  br i1 %.not38, label %36, label %35

35:                                               ; preds = %32
  tail call void (ptr, ...) @proto_report_dissector_bug(ptr noundef nonnull @.str, ptr noundef nonnull @.str.1, i32 noundef 92, ptr noundef nonnull @.str.10) #7
  unreachable

36:                                               ; preds = %32
  %37 = tail call ptr @tvb_get_ptr(ptr noundef nonnull %19, i32 noundef %30, i32 noundef %2)
  br label %49

38:                                               ; preds = %25
  %39 = getelementptr inbounds nuw i8, ptr %0, i64 40
  %40 = load i32, ptr %39, align 8
  %41 = zext i32 %40 to i64
  %42 = tail call noalias ptr @g_malloc(i64 noundef %41) #9
  %43 = load i32, ptr %39, align 8
  %44 = zext i32 %43 to i64
  %45 = tail call ptr @tvb_memcpy(ptr noundef %0, ptr noundef %42, i32 noundef 0, i64 noundef %44)
  %46 = getelementptr inbounds nuw i8, ptr %0, i64 32
  store ptr %42, ptr %46, align 8
  %47 = zext i32 %1 to i64
  %48 = getelementptr i8, ptr %42, i64 %47
  br label %49

49:                                               ; preds = %.thread, %38, %36
  %.0 = phi ptr [ %37, %36 ], [ %48, %38 ], [ @.str.9, %.thread ]
  ret ptr %.0
}